target datalayout = "e-m:e-p270:32:32-p271:32:32-p272:64:64-i64:64-i128:128-f80:128-n8:16:32:64-S128"
target triple = "x86_64-pc-linux-gnu"

; Function Attrs: nounwind uwtable
define internal i64 @nw_in_recv(ptr noundef %0, ptr noundef %1, i64 noundef %2, ptr noundef %3) #0 {
  %5 = alloca i64, align 8
  %6 = alloca ptr, align 8
  %7 = alloca ptr, align 8
  %8 = alloca i64, align 8
  %9 = alloca ptr, align 8
  %10 = alloca ptr, align 8
  %11 = alloca i64, align 8
  %12 = alloca i32, align 4
  store ptr %0, ptr %6, align 8, !tbaa !19
  store ptr %1, ptr %7, align 8, !tbaa !20
  store i64 %2, ptr %8, align 8, !tbaa !17
  store ptr %3, ptr %9, align 8, !tbaa !19
  call void @llvm.lifetime.start.p0(i64 8, ptr %10) #6
  %13 = load ptr, ptr %6, align 8, !tbaa !19
  store ptr %13, ptr %10, align 8, !tbaa !3
  call void @llvm.lifetime.start.p0(i64 8, ptr %11) #6
  %14 = load ptr, ptr %10, align 8, !tbaa !3
  %15 = load ptr, ptr %7, align 8, !tbaa !20
  %16 = load i64, ptr %8, align 8, !tbaa !17
  %17 = call i32 @curl_easy_recv(ptr noundef %14, ptr noundef %15, i64 noundef %16, ptr noundef %11)
  %18 = load ptr, ptr %9, align 8, !tbaa !19
  store i32 %17, ptr %18, align 4, !tbaa !10
  %19 = load ptr, ptr %9, align 8, !tbaa !19
  %20 = load i32, ptr %19, align 4, !tbaa !10
  %21 = icmp ne i32 %20, 0
  br i1 %21, label %22, label %23

22:                                               ; preds = %4
  store i64 -1, ptr %5, align 8
  store i32 1, ptr %12, align 4
  br label %25

23:                                               ; preds = %4
  %24 = load i64, ptr %11, align 8, !tbaa !17
  store i64 %24, ptr %5, align 8
  store i32 1, ptr %12, align 4
  br label %25

25:                                               ; preds = %23, %22
  call void @llvm.lifetime.end.p0(i64 8, ptr %11) #6
  call void @llvm.lifetime.end.p0(i64 8, ptr %10) #6
  %26 = load i64, ptr %5, align 8
  ret i64 %26
}