; Function Attrs: nounwind uwtable
define internal i64 @nw_in_recv(ptr noundef %0, ptr noundef %1, i64 noundef %2, ptr noundef writeonly captures(none) initializes((0, 4)) %3) #0 {
  %5 = alloca i64, align 8
  call void @llvm.lifetime.start.p0(i64 8, ptr nonnull %5) #7
  %6 = call i32 @curl_easy_recv(ptr noundef %0, ptr noundef %1, i64 noundef %2, ptr noundef nonnull %5) #7
  store i32 %6, ptr %3, align 4, !tbaa !96
  %.not = icmp eq i32 %6, 0
  %7 = load i64, ptr %5, align 8
  %.0 = select i1 %.not, i64 %7, i64 -1
  call void @llvm.lifetime.end.p0(i64 8, ptr nonnull %5) #7
  ret i64 %.0
}